target datalayout = "e-m:e-p270:32:32-p271:32:32-p272:64:64-i64:64-i128:128-f80:128-n8:16:32:64-S128"
target triple = "x86_64-unknown-linux-gnu"

%"class.std::__cxx11::basic_string" = type { %"struct.std::__cxx11::basic_string<char>::_Alloc_hider", i64, %union.anon }
%"struct.std::__cxx11::basic_string<char>::_Alloc_hider" = type { ptr }
%union.anon = type { i64, [8 x i8] }
%"class.cvc5::internal::theory::Valuation" = type { ptr }
%"class.cvc5::context::DefaultCleanUp" = type { i8 }
%"class.cvc5::context::DefaultCleanUp.11" = type { i8 }
%"class.cvc5::internal::theory::Theory" = type { %"class.cvc5::internal::EnvObj", %"class.std::__cxx11::basic_string", %"class.cvc5::internal::TimerStat", %"class.cvc5::internal::TimerStat", %"class.cvc5::context::CDList", ptr, %"class.cvc5::internal::theory::Valuation", ptr, %"class.std::unique_ptr", ptr, ptr, ptr, ptr, i32, [4 x i8], %"class.cvc5::context::CDList.5", %"class.cvc5::context::CDO", %"class.cvc5::context::CDO", ptr, ptr }
%"class.cvc5::internal::EnvObj" = type { ptr, ptr }
%"class.cvc5::internal::TimerStat" = type { ptr }
%"class.cvc5::context::CDList" = type <{ %"class.cvc5::context::ContextObj", %"class.std::vector", i64, i8, %"class.cvc5::context::DefaultCleanUp", [6 x i8] }>
%"class.cvc5::context::ContextObj" = type { ptr, ptr, ptr, ptr, ptr }
%"class.std::vector" = type { %"struct.std::_Vector_base" }
%"struct.std::_Vector_base" = type { %"struct.std::_Vector_base<cvc5::internal::NodeTemplate<false>, std::allocator<cvc5::internal::NodeTemplate<false>>>::_Vector_impl" }
%"struct.std::_Vector_base<cvc5::internal::NodeTemplate<false>, std::allocator<cvc5::internal::NodeTemplate<false>>>::_Vector_impl" = type { %"struct.std::_Vector_base<cvc5::internal::NodeTemplate<false>, std::allocator<cvc5::internal::NodeTemplate<false>>>::_Vector_impl_data" }
%"struct.std::_Vector_base<cvc5::internal::NodeTemplate<false>, std::allocator<cvc5::internal::NodeTemplate<false>>>::_Vector_impl_data" = type { ptr, ptr, ptr }
%"class.std::unique_ptr" = type { %"struct.std::__uniq_ptr_data" }
%"struct.std::__uniq_ptr_data" = type { %"class.std::__uniq_ptr_impl" }
%"class.std::__uniq_ptr_impl" = type { %"class.std::tuple" }
%"class.std::tuple" = type { %"struct.std::_Tuple_impl" }
%"struct.std::_Tuple_impl" = type { %"struct.std::_Head_base.4" }
%"struct.std::_Head_base.4" = type { ptr }
%"class.cvc5::context::CDList.5" = type <{ %"class.cvc5::context::ContextObj", %"class.std::vector.6", i64, i8, %"class.cvc5::context::DefaultCleanUp.11", [6 x i8] }>
%"class.std::vector.6" = type { %"struct.std::_Vector_base.7" }
%"struct.std::_Vector_base.7" = type { %"struct.std::_Vector_base<cvc5::internal::theory::Assertion, std::allocator<cvc5::internal::theory::Assertion>>::_Vector_impl" }
%"struct.std::_Vector_base<cvc5::internal::theory::Assertion, std::allocator<cvc5::internal::theory::Assertion>>::_Vector_impl" = type { %"struct.std::_Vector_base<cvc5::internal::theory::Assertion, std::allocator<cvc5::internal::theory::Assertion>>::_Vector_impl_data" }
%"struct.std::_Vector_base<cvc5::internal::theory::Assertion, std::allocator<cvc5::internal::theory::Assertion>>::_Vector_impl_data" = type { ptr, ptr, ptr }
%"class.cvc5::context::CDO" = type <{ %"class.cvc5::context::ContextObj", i32, [4 x i8] }>

; Function Attrs: mustprogress uwtable
define hidden void @_ZN4cvc58internal6theory6Theory17setEqualityEngineEPNS1_2eq14EqualityEngineE(ptr noundef nonnull align 8 dereferenceable(408) %this, ptr noundef %ee) #4 align 2 {
entry:
  %this.addr = alloca ptr, align 8
  %ee.addr = alloca ptr, align 8
  store ptr %this, ptr %this.addr, align 8
  store ptr %ee, ptr %ee.addr, align 8
  %this1 = load ptr, ptr %this.addr, align 8
  %0 = load ptr, ptr %ee.addr, align 8
  %d_equalityEngine = getelementptr inbounds %"class.cvc5::internal::theory::Theory", ptr %this1, i32 0, i32 7
  store ptr %0, ptr %d_equalityEngine, align 8
  %d_theoryState = getelementptr inbounds %"class.cvc5::internal::theory::Theory", ptr %this1, i32 0, i32 9
  %1 = load ptr, ptr %d_theoryState, align 8
  %cmp = icmp ne ptr %1, null
  br i1 %cmp, label %if.then, label %if.end

if.then:                                          ; preds = %entry
  %d_theoryState2 = getelementptr inbounds %"class.cvc5::internal::theory::Theory", ptr %this1, i32 0, i32 9
  %2 = load ptr, ptr %d_theoryState2, align 8
  %3 = load ptr, ptr %ee.addr, align 8
  call void @_ZN4cvc58internal6theory11TheoryState17setEqualityEngineEPNS1_2eq14EqualityEngineE(ptr noundef nonnull align 8 dereferenceable(80) %2, ptr noundef %3)
  br label %if.end

if.end:                                           ; preds = %if.then, %entry
  %d_inferManager = getelementptr inbounds %"class.cvc5::internal::theory::Theory", ptr %this1, i32 0, i32 10
  %4 = load ptr, ptr %d_inferManager, align 8
  %cmp3 = icmp ne ptr %4, null
  br i1 %cmp3, label %if.then4, label %if.end6

if.then4:                                         ; preds = %if.end
  %d_inferManager5 = getelementptr inbounds %"class.cvc5::internal::theory::Theory", ptr %this1, i32 0, i32 10
  %5 = load ptr, ptr %d_inferManager5, align 8
  %6 = load ptr, ptr %ee.addr, align 8
  call void @_ZN4cvc58internal6theory22TheoryInferenceManager17setEqualityEngineEPNS1_2eq14EqualityEngineE(ptr noundef nonnull align 8 dereferenceable(256) %5, ptr noundef %6)
  br label %if.end6

if.end6:                                          ; preds = %if.then4, %if.end
  ret void
}