; Function Attrs: mustprogress uwtable
define hidden void @_ZN4cvc58internal6theory6Theory17setEqualityEngineEPNS1_2eq14EqualityEngineE(ptr nocapture noundef nonnull align 8 dereferenceable(408) %this, ptr noundef %ee) local_unnamed_addr #3 align 2 {
entry:
  %d_equalityEngine = getelementptr inbounds i8, ptr %this, i64 160
  store ptr %ee, ptr %d_equalityEngine, align 8
  %d_theoryState = getelementptr inbounds i8, ptr %this, i64 176
  %0 = load ptr, ptr %d_theoryState, align 8
  %cmp.not = icmp eq ptr %0, null
  br i1 %cmp.not, label %if.end, label %if.then

if.then:                                          ; preds = %entry
  tail call void @_ZN4cvc58internal6theory11TheoryState17setEqualityEngineEPNS1_2eq14EqualityEngineE(ptr noundef nonnull align 8 dereferenceable(80) %0, ptr noundef %ee)
  br label %if.end

if.end:                                           ; preds = %if.then, %entry
  %d_inferManager = getelementptr inbounds i8, ptr %this, i64 184
  %1 = load ptr, ptr %d_inferManager, align 8
  %cmp3.not = icmp eq ptr %1, null
  br i1 %cmp3.not, label %if.end6, label %if.then4

if.then4:                                         ; preds = %if.end
  tail call void @_ZN4cvc58internal6theory22TheoryInferenceManager17setEqualityEngineEPNS1_2eq14EqualityEngineE(ptr noundef nonnull align 8 dereferenceable(256) %1, ptr noundef %ee)
  br label %if.end6

if.end6:                                          ; preds = %if.then4, %if.end
  ret void
}